; Function Attrs: nofree norecurse nosync nounwind memory(readwrite, inaccessiblemem: none) uwtable
define dso_local i32 @LZ4_compress_destSize_extState(ptr noundef %0, ptr noundef %1, ptr noundef %2, ptr noundef captures(none) %3, i32 noundef %4, i32 noundef %5) local_unnamed_addr #1 {
  %7 = tail call fastcc i32 @LZ4_compress_destSize_extState_internal(ptr noundef %0, ptr noundef %1, ptr noundef %2, ptr noundef %3, i32 noundef %4, i32 noundef %5)
  %8 = icmp ne ptr %0, null
  %9 = ptrtoint ptr %0 to i64
  %10 = and i64 %9, 7
  %.not.i = icmp eq i64 %10, 0
  %or.cond7.i = and i1 %8, %.not.i
  br i1 %or.cond7.i, label %11, label %LZ4_initStream.exit

11:                                               ; preds = %6
  tail call void @llvm.memset.p0.i64(ptr noundef nonnull align 1 dereferenceable(16416) %0, i8 0, i64 16416, i1 false)
  br label %LZ4_initStream.exit

LZ4_initStream.exit:                              ; preds = %6, %11
  ret i32 %7
}